target datalayout = "e-m:e-p270:32:32-p271:32:32-p272:64:64-i64:64-i128:128-f80:128-n8:16:32:64-S128"
target triple = "x86_64-pc-linux-gnu"

%"class.llvm::Register" = type { i32 }
%"class.llvm::SmallVectorBase.241" = type { ptr, i64, i64 }
%"class.llvm::MachineOperand" = type { i32, %union.anon.400, ptr, %"union.llvm::MachineOperand::ContentsUnion" }
%union.anon.400 = type { i32 }
%"union.llvm::MachineOperand::ContentsUnion" = type { %"class.llvm::ArrayRef.401" }
%"class.llvm::ArrayRef.401" = type { ptr, i64 }
%"class.llvm::ShapeT" = type { ptr, ptr, i64, i64 }
%class.anon.473 = type { ptr, ptr, ptr, ptr, ptr }

; Function Attrs: mustprogress nounwind uwtable
define linkonce_odr hidden noundef ptr @_ZNK4llvm25SmallVectorTemplateCommonItvE10getFirstElEv(ptr noundef nonnull align 8 dereferenceable(24) %0) #0 comdat align 2 {
  %2 = alloca ptr, align 8
  store ptr %0, ptr %2, align 8
  %3 = load ptr, ptr %2, align 8
  %4 = getelementptr inbounds i8, ptr %3, i64 24
  ret ptr %4
}

; Function Attrs: mustprogress nounwind uwtable
define linkonce_odr hidden void @_ZN4llvm25SmallVectorTemplateCommonItvE8grow_podEmm(ptr noundef nonnull align 8 dereferenceable(24) %0, i64 noundef %1, i64 noundef %2) #0 comdat align 2 {
  %4 = alloca ptr, align 8
  %5 = alloca i64, align 8
  %6 = alloca i64, align 8
  store ptr %0, ptr %4, align 8
  store i64 %1, ptr %5, align 8
  store i64 %2, ptr %6, align 8
  %7 = load ptr, ptr %4, align 8
  %8 = call noundef ptr @_ZNK4llvm25SmallVectorTemplateCommonItvE10getFirstElEv(ptr noundef nonnull align 8 dereferenceable(24) %7)
  %9 = load i64, ptr %5, align 8
  %10 = load i64, ptr %6, align 8
  call void @_ZN4llvm15SmallVectorBaseImE8grow_podEPvmm(ptr noundef nonnull align 8 dereferenceable(24) %7, ptr noundef %8, i64 noundef %9, i64 noundef %10)
  ret void
}

; Function Attrs: mustprogress nounwind uwtable
define linkonce_odr hidden void @_ZN4llvm23SmallVectorTemplateBaseItLb1EE4growEm(ptr noundef nonnull align 8 dereferenceable(24) %0, i64 noundef %1) #0 comdat align 2 {
  %3 = alloca ptr, align 8
  %4 = alloca i64, align 8
  store ptr %0, ptr %3, align 8
  store i64 %1, ptr %4, align 8
  %5 = load ptr, ptr %3, align 8
  %6 = load i64, ptr %4, align 8
  call void @_ZN4llvm25SmallVectorTemplateCommonItvE8grow_podEmm(ptr noundef nonnull align 8 dereferenceable(24) %5, i64 noundef %6, i64 noundef 2)
  ret void
}

; Function Attrs: mustprogress nounwind uwtable
define linkonce_odr hidden void @_ZN4llvm8RegisterC2Ej(ptr noundef nonnull align 4 dereferenceable(4) %0, i32 noundef %1) unnamed_addr #0 comdat align 2 {
  %3 = alloca ptr, align 8
  %4 = alloca i32, align 4
  store ptr %0, ptr %3, align 8
  store i32 %1, ptr %4, align 4
  %5 = load ptr, ptr %3, align 8
  %6 = getelementptr inbounds nuw %"class.llvm::Register", ptr %5, i32 0, i32 0
  %7 = load i32, ptr %4, align 4
  store i32 %7, ptr %6, align 4
  ret void
}

; Function Attrs: mustprogress nounwind uwtable
define linkonce_odr hidden noundef ptr @_ZN4llvm25SmallVectorTemplateCommonItvE5beginEv(ptr noundef nonnull align 8 dereferenceable(24) %0) #0 comdat align 2 {
  %2 = alloca ptr, align 8
  store ptr %0, ptr %2, align 8
  %3 = load ptr, ptr %2, align 8
  %4 = getelementptr inbounds nuw %"class.llvm::SmallVectorBase.241", ptr %3, i32 0, i32 0
  %5 = load ptr, ptr %4, align 8
  ret ptr %5
}

; Function Attrs: mustprogress nounwind uwtable
define linkonce_odr hidden noundef ptr @_ZN4llvm25SmallVectorTemplateCommonItvE32reserveForParamAndGetAddressImplINS_23SmallVectorTemplateBaseItLb1EEEEEPKtPT_RS5_m(ptr noundef %0, ptr noundef nonnull align 2 dereferenceable(2) %1, i64 noundef %2) #0 comdat align 2 {
  %4 = alloca ptr, align 8
  %5 = alloca ptr, align 8
  %6 = alloca ptr, align 8
  %7 = alloca i64, align 8
  %8 = alloca i64, align 8
  %9 = alloca i8, align 1
  %10 = alloca i64, align 8
  store ptr %0, ptr %5, align 8
  store ptr %1, ptr %6, align 8
  store i64 %2, ptr %7, align 8
  %11 = load ptr, ptr %5, align 8
  %12 = call noundef i64 @_ZNK4llvm15SmallVectorBaseImE4sizeEv(ptr noundef nonnull align 8 dereferenceable(24) %11)
  %13 = load i64, ptr %7, align 8
  %14 = add i64 %12, %13
  store i64 %14, ptr %8, align 8
  %15 = load i64, ptr %8, align 8
  %16 = load ptr, ptr %5, align 8
  %17 = call noundef i64 @_ZNK4llvm15SmallVectorBaseImE8capacityEv(ptr noundef nonnull align 8 dereferenceable(24) %16)
  %18 = icmp ule i64 %15, %17
  br i1 %18, label %19, label %21

19:                                               ; preds = %3
  %20 = load ptr, ptr %6, align 8
  store ptr %20, ptr %4, align 8
  br label %35

21:                                               ; preds = %3
  store i8 0, ptr %9, align 1
  store i64 -1, ptr %10, align 8
  %22 = load ptr, ptr %5, align 8
  %23 = load i64, ptr %8, align 8
  call void @_ZN4llvm23SmallVectorTemplateBaseItLb1EE4growEm(ptr noundef nonnull align 8 dereferenceable(24) %22, i64 noundef %23)
  %24 = load i8, ptr %9, align 1
  %25 = trunc i8 %24 to i1
  br i1 %25, label %26, label %31

26:                                               ; preds = %21
  %27 = load ptr, ptr %5, align 8
  %28 = call noundef ptr @_ZN4llvm25SmallVectorTemplateCommonItvE5beginEv(ptr noundef nonnull align 8 dereferenceable(24) %27)
  %29 = load i64, ptr %10, align 8
  %30 = getelementptr inbounds i16, ptr %28, i64 %29
  br label %33

31:                                               ; preds = %21
  %32 = load ptr, ptr %6, align 8
  br label %33

33:                                               ; preds = %31, %26
  %34 = phi ptr [ %30, %26 ], [ %32, %31 ]
  store ptr %34, ptr %4, align 8
  br label %35

35:                                               ; preds = %33, %19
  %36 = load ptr, ptr %4, align 8
  ret ptr %36
}

; Function Attrs: mustprogress nounwind uwtable
define linkonce_odr hidden noundef i64 @_ZNK4llvm6ShapeT9getColImmEv(ptr noundef nonnull align 8 dereferenceable(32) %0) #0 comdat align 2 {
  %2 = alloca ptr, align 8
  store ptr %0, ptr %2, align 8
  %3 = load ptr, ptr %2, align 8
  %4 = getelementptr inbounds nuw %"class.llvm::ShapeT", ptr %3, i32 0, i32 3
  %5 = load i64, ptr %4, align 8
  ret i64 %5
}

; Function Attrs: mustprogress nounwind uwtable
define linkonce_odr hidden noundef i64 @_ZNK4llvm6ShapeT9getRowImmEv(ptr noundef nonnull align 8 dereferenceable(32) %0) #0 comdat align 2 {
  %2 = alloca ptr, align 8
  store ptr %0, ptr %2, align 8
  %3 = load ptr, ptr %2, align 8
  %4 = getelementptr inbounds nuw %"class.llvm::ShapeT", ptr %3, i32 0, i32 2
  %5 = load i64, ptr %4, align 8
  ret i64 %5
}

; Function Attrs: mustprogress nounwind uwtable
define linkonce_odr hidden noundef zeroext i1 @_ZNK4llvm8RegistereqERKS0_(ptr noundef nonnull align 4 dereferenceable(4) %0, ptr noundef nonnull align 4 dereferenceable(4) %1) #0 comdat align 2 {
  %3 = alloca ptr, align 8
  %4 = alloca ptr, align 8
  store ptr %0, ptr %3, align 8
  store ptr %1, ptr %4, align 8
  %5 = load ptr, ptr %3, align 8
  %6 = getelementptr inbounds nuw %"class.llvm::Register", ptr %5, i32 0, i32 0
  %7 = load i32, ptr %6, align 4
  %8 = load ptr, ptr %4, align 8
  %9 = getelementptr inbounds nuw %"class.llvm::Register", ptr %8, i32 0, i32 0
  %10 = load i32, ptr %9, align 4
  %11 = icmp eq i32 %7, %10
  ret i1 %11
}

; Function Attrs: mustprogress nounwind uwtable
define linkonce_odr hidden i32 @_ZNK4llvm14MachineOperand6getRegEv(ptr noundef nonnull align 8 dereferenceable(32) %0) #0 comdat align 2 {
  %2 = alloca %"class.llvm::Register", align 4
  %3 = alloca ptr, align 8
  store ptr %0, ptr %3, align 8
  %4 = load ptr, ptr %3, align 8
  %5 = getelementptr inbounds nuw %"class.llvm::MachineOperand", ptr %4, i32 0, i32 1
  %6 = load i32, ptr %5, align 4
  call void @_ZN4llvm8RegisterC2Ej(ptr noundef nonnull align 4 dereferenceable(4) %2, i32 noundef %6)
  %7 = getelementptr inbounds nuw %"class.llvm::Register", ptr %2, i32 0, i32 0
  %8 = load i32, ptr %7, align 4
  ret i32 %8
}

; Function Attrs: mustprogress nounwind uwtable
define linkonce_odr hidden noundef ptr @_ZN4llvm25SmallVectorTemplateCommonItvE3endEv(ptr noundef nonnull align 8 dereferenceable(24) %0) #0 comdat align 2 {
  %2 = alloca ptr, align 8
  store ptr %0, ptr %2, align 8
  %3 = load ptr, ptr %2, align 8
  %4 = call noundef ptr @_ZN4llvm25SmallVectorTemplateCommonItvE5beginEv(ptr noundef nonnull align 8 dereferenceable(24) %3)
  %5 = call noundef i64 @_ZNK4llvm15SmallVectorBaseImE4sizeEv(ptr noundef nonnull align 8 dereferenceable(24) %3)
  %6 = getelementptr inbounds i16, ptr %4, i64 %5
  ret ptr %6
}

; Function Attrs: mustprogress nounwind uwtable
define linkonce_odr hidden noundef ptr @_ZN4llvm23SmallVectorTemplateBaseItLb1EE28reserveForParamAndGetAddressERtm(ptr noundef nonnull align 8 dereferenceable(24) %0, ptr noundef nonnull align 2 dereferenceable(2) %1, i64 noundef %2) #0 comdat align 2 {
  %4 = alloca ptr, align 8
  %5 = alloca ptr, align 8
  %6 = alloca i64, align 8
  store ptr %0, ptr %4, align 8
  store ptr %1, ptr %5, align 8
  store i64 %2, ptr %6, align 8
  %7 = load ptr, ptr %4, align 8
  %8 = load ptr, ptr %5, align 8
  %9 = load i64, ptr %6, align 8
  %10 = call noundef ptr @_ZN4llvm25SmallVectorTemplateCommonItvE32reserveForParamAndGetAddressImplINS_23SmallVectorTemplateBaseItLb1EEEEEPKtPT_RS5_m(ptr noundef %7, ptr noundef nonnull align 2 dereferenceable(2) %8, i64 noundef %9)
  ret ptr %10
}

; Function Attrs: mustprogress nounwind uwtable
define linkonce_odr hidden noundef zeroext i1 @_ZNK4llvm6ShapeTeqERKS0_(ptr noundef nonnull align 8 dereferenceable(32) %0, ptr noundef nonnull align 8 dereferenceable(32) %1) #0 comdat align 2 {
  %3 = alloca i1, align 1
  %4 = alloca ptr, align 8
  %5 = alloca ptr, align 8
  %6 = alloca ptr, align 8
  %7 = alloca ptr, align 8
  %8 = alloca %"class.llvm::Register", align 4
  %9 = alloca %"class.llvm::Register", align 4
  %10 = alloca %"class.llvm::Register", align 4
  %11 = alloca %"class.llvm::Register", align 4
  store ptr %0, ptr %4, align 8
  store ptr %1, ptr %5, align 8
  %12 = load ptr, ptr %4, align 8
  %13 = load ptr, ptr %5, align 8
  %14 = getelementptr inbounds nuw %"class.llvm::ShapeT", ptr %13, i32 0, i32 0
  %15 = load ptr, ptr %14, align 8
  store ptr %15, ptr %6, align 8
  %16 = load ptr, ptr %5, align 8
  %17 = getelementptr inbounds nuw %"class.llvm::ShapeT", ptr %16, i32 0, i32 1
  %18 = load ptr, ptr %17, align 8
  store ptr %18, ptr %7, align 8
  %19 = load ptr, ptr %6, align 8
  %20 = icmp ne ptr %19, null
  br i1 %20, label %21, label %24

21:                                               ; preds = %2
  %22 = load ptr, ptr %7, align 8
  %23 = icmp ne ptr %22, null
  br i1 %23, label %25, label %24

24:                                               ; preds = %21, %2
  store i1 false, ptr %3, align 1
  br label %78

25:                                               ; preds = %21
  %26 = getelementptr inbounds nuw %"class.llvm::ShapeT", ptr %12, i32 0, i32 0
  %27 = load ptr, ptr %26, align 8
  %28 = icmp ne ptr %27, null
  br i1 %28, label %29, label %33

29:                                               ; preds = %25
  %30 = getelementptr inbounds nuw %"class.llvm::ShapeT", ptr %12, i32 0, i32 1
  %31 = load ptr, ptr %30, align 8
  %32 = icmp ne ptr %31, null
  br i1 %32, label %34, label %33

33:                                               ; preds = %29, %25
  store i1 false, ptr %3, align 1
  br label %78

34:                                               ; preds = %29
  %35 = getelementptr inbounds nuw %"class.llvm::ShapeT", ptr %12, i32 0, i32 0
  %36 = load ptr, ptr %35, align 8
  %37 = call i32 @_ZNK4llvm14MachineOperand6getRegEv(ptr noundef nonnull align 8 dereferenceable(32) %36)
  %38 = getelementptr inbounds nuw %"class.llvm::Register", ptr %8, i32 0, i32 0
  store i32 %37, ptr %38, align 4
  %39 = load ptr, ptr %6, align 8
  %40 = call i32 @_ZNK4llvm14MachineOperand6getRegEv(ptr noundef nonnull align 8 dereferenceable(32) %39)
  %41 = getelementptr inbounds nuw %"class.llvm::Register", ptr %9, i32 0, i32 0
  store i32 %40, ptr %41, align 4
  %42 = call noundef zeroext i1 @_ZNK4llvm8RegistereqERKS0_(ptr noundef nonnull align 4 dereferenceable(4) %8, ptr noundef nonnull align 4 dereferenceable(4) %9)
  br i1 %42, label %43, label %52

43:                                               ; preds = %34
  %44 = getelementptr inbounds nuw %"class.llvm::ShapeT", ptr %12, i32 0, i32 1
  %45 = load ptr, ptr %44, align 8
  %46 = call i32 @_ZNK4llvm14MachineOperand6getRegEv(ptr noundef nonnull align 8 dereferenceable(32) %45)
  %47 = getelementptr inbounds nuw %"class.llvm::Register", ptr %10, i32 0, i32 0
  store i32 %46, ptr %47, align 4
  %48 = load ptr, ptr %7, align 8
  %49 = call i32 @_ZNK4llvm14MachineOperand6getRegEv(ptr noundef nonnull align 8 dereferenceable(32) %48)
  %50 = getelementptr inbounds nuw %"class.llvm::Register", ptr %11, i32 0, i32 0
  store i32 %49, ptr %50, align 4
  %51 = call noundef zeroext i1 @_ZNK4llvm8RegistereqERKS0_(ptr noundef nonnull align 4 dereferenceable(4) %10, ptr noundef nonnull align 4 dereferenceable(4) %11)
  br label %52

52:                                               ; preds = %43, %34
  %53 = phi i1 [ false, %34 ], [ %51, %43 ]
  br i1 %53, label %54, label %55

54:                                               ; preds = %52
  store i1 true, ptr %3, align 1
  br label %78

55:                                               ; preds = %52
  %56 = getelementptr inbounds nuw %"class.llvm::ShapeT", ptr %12, i32 0, i32 2
  %57 = load i64, ptr %56, align 8
  %58 = icmp ne i64 %57, -1
  br i1 %58, label %59, label %77

59:                                               ; preds = %55
  %60 = getelementptr inbounds nuw %"class.llvm::ShapeT", ptr %12, i32 0, i32 3
  %61 = load i64, ptr %60, align 8
  %62 = icmp ne i64 %61, -1
  br i1 %62, label %63, label %77

63:                                               ; preds = %59
  %64 = getelementptr inbounds nuw %"class.llvm::ShapeT", ptr %12, i32 0, i32 2
  %65 = load i64, ptr %64, align 8
  %66 = load ptr, ptr %5, align 8
  %67 = call noundef i64 @_ZNK4llvm6ShapeT9getRowImmEv(ptr noundef nonnull align 8 dereferenceable(32) %66)
  %68 = icmp eq i64 %65, %67
  br i1 %68, label %69, label %75

69:                                               ; preds = %63
  %70 = getelementptr inbounds nuw %"class.llvm::ShapeT", ptr %12, i32 0, i32 3
  %71 = load i64, ptr %70, align 8
  %72 = load ptr, ptr %5, align 8
  %73 = call noundef i64 @_ZNK4llvm6ShapeT9getColImmEv(ptr noundef nonnull align 8 dereferenceable(32) %72)
  %74 = icmp eq i64 %71, %73
  br label %75

75:                                               ; preds = %69, %63
  %76 = phi i1 [ false, %63 ], [ %74, %69 ]
  store i1 %76, ptr %3, align 1
  br label %78

77:                                               ; preds = %59, %55
  store i1 false, ptr %3, align 1
  br label %78

78:                                               ; preds = %77, %75, %54, %33, %24
  %79 = load i1, ptr %3, align 1
  ret i1 %79
}

; Function Attrs: mustprogress nounwind uwtable
define linkonce_odr hidden void @_ZN4llvm23SmallVectorTemplateBaseItLb1EE9push_backEt(ptr noundef nonnull align 8 dereferenceable(24) %0, i16 noundef zeroext %1) #0 comdat align 2 {
  %3 = alloca ptr, align 8
  %4 = alloca i16, align 2
  %5 = alloca ptr, align 8
  store ptr %0, ptr %3, align 8
  store i16 %1, ptr %4, align 2
  %6 = load ptr, ptr %3, align 8
  %7 = call noundef ptr @_ZN4llvm23SmallVectorTemplateBaseItLb1EE28reserveForParamAndGetAddressERtm(ptr noundef nonnull align 8 dereferenceable(24) %6, ptr noundef nonnull align 2 dereferenceable(2) %4, i64 noundef 1)
  store ptr %7, ptr %5, align 8
  %8 = call noundef ptr @_ZN4llvm25SmallVectorTemplateCommonItvE3endEv(ptr noundef nonnull align 8 dereferenceable(24) %6)
  %9 = load ptr, ptr %5, align 8
  call void @llvm.memcpy.p0.p0.i64(ptr align 1 %8, ptr align 2 %9, i64 2, i1 false)
  %10 = call noundef i64 @_ZNK4llvm15SmallVectorBaseImE4sizeEv(ptr noundef nonnull align 8 dereferenceable(24) %6)
  %11 = add i64 %10, 1
  call void @_ZN4llvm15SmallVectorBaseImE8set_sizeEm(ptr noundef nonnull align 8 dereferenceable(24) %6, i64 noundef %11)
  ret void
}

; Function Attrs: mustprogress nounwind uwtable
define linkonce_odr hidden noundef zeroext i1 @_ZNK4llvm8RegistereqEj(ptr noundef nonnull align 4 dereferenceable(4) %0, i32 noundef %1) #0 comdat align 2 {
  %3 = alloca ptr, align 8
  %4 = alloca i32, align 4
  store ptr %0, ptr %3, align 8
  store i32 %1, ptr %4, align 4
  %5 = load ptr, ptr %3, align 8
  %6 = getelementptr inbounds nuw %"class.llvm::Register", ptr %5, i32 0, i32 0
  %7 = load i32, ptr %6, align 4
  %8 = load i32, ptr %4, align 4
  %9 = icmp eq i32 %7, %8
  ret i1 %9
}

; Function Attrs: mustprogress nounwind uwtable
define internal void @"_ZZNK4llvm15X86RegisterInfo21getRegAllocationHintsENS_8RegisterENS_8ArrayRefItEERNS_15SmallVectorImplItEERKNS_15MachineFunctionEPKNS_10VirtRegMapEPKNS_13LiveRegMatrixEENK3$_1clEt"(ptr noundef nonnull align 8 dereferenceable(40) %0, i16 noundef zeroext %1) #0 align 2 {
  %3 = alloca ptr, align 8
  %4 = alloca i16, align 2
  %5 = alloca %"class.llvm::Register", align 4
  %6 = alloca %"class.llvm::ShapeT", align 8
  %7 = alloca %"class.llvm::Register", align 4
  store ptr %0, ptr %3, align 8
  store i16 %1, ptr %4, align 2
  %8 = load ptr, ptr %3, align 8
  %9 = getelementptr inbounds nuw %class.anon.473, ptr %8, i32 0, i32 0
  %10 = load ptr, ptr %9, align 8
  %11 = load ptr, ptr %10, align 8
  %12 = load i16, ptr %4, align 2
  %13 = zext i16 %12 to i32
  %14 = call i32 @_ZNK4llvm13LiveRegMatrix10getOneVRegEj(ptr noundef nonnull align 8 dereferenceable(296) %11, i32 noundef %13)
  %15 = getelementptr inbounds nuw %"class.llvm::Register", ptr %5, i32 0, i32 0
  store i32 %14, ptr %15, align 4
  %16 = call noundef zeroext i1 @_ZNK4llvm8RegistereqEj(ptr noundef nonnull align 4 dereferenceable(4) %5, i32 noundef 0)
  br i1 %16, label %17, label %21

17:                                               ; preds = %2
  %18 = getelementptr inbounds nuw %class.anon.473, ptr %8, i32 0, i32 1
  %19 = load ptr, ptr %18, align 8
  %20 = load i16, ptr %4, align 2
  call void @_ZN4llvm23SmallVectorTemplateBaseItLb1EE9push_backEt(ptr noundef nonnull align 8 dereferenceable(24) %19, i16 noundef zeroext %20)
  br label %37

21:                                               ; preds = %2
  call void @llvm.memcpy.p0.p0.i64(ptr align 4 %7, ptr align 4 %5, i64 4, i1 false)
  %22 = getelementptr inbounds nuw %class.anon.473, ptr %8, i32 0, i32 2
  %23 = load ptr, ptr %22, align 8
  %24 = load ptr, ptr %23, align 8
  %25 = getelementptr inbounds nuw %class.anon.473, ptr %8, i32 0, i32 3
  %26 = load ptr, ptr %25, align 8
  %27 = load ptr, ptr %26, align 8
  %28 = getelementptr inbounds nuw %"class.llvm::Register", ptr %7, i32 0, i32 0
  %29 = load i32, ptr %28, align 4
  call void @_ZL12getTileShapeN4llvm8RegisterEPNS_10VirtRegMapEPKNS_19MachineRegisterInfoE(ptr dead_on_unwind writable sret(%"class.llvm::ShapeT") align 8 %6, i32 %29, ptr noundef %24, ptr noundef %27)
  %30 = getelementptr inbounds nuw %class.anon.473, ptr %8, i32 0, i32 4
  %31 = load ptr, ptr %30, align 8
  %32 = call noundef zeroext i1 @_ZNK4llvm6ShapeTeqERKS0_(ptr noundef nonnull align 8 dereferenceable(32) %6, ptr noundef nonnull align 8 dereferenceable(32) %31)
  br i1 %32, label %33, label %37

33:                                               ; preds = %21
  %34 = getelementptr inbounds nuw %class.anon.473, ptr %8, i32 0, i32 1
  %35 = load ptr, ptr %34, align 8
  %36 = load i16, ptr %4, align 2
  call void @_ZN4llvm23SmallVectorTemplateBaseItLb1EE9push_backEt(ptr noundef nonnull align 8 dereferenceable(24) %35, i16 noundef zeroext %36)
  br label %37

37:                                               ; preds = %33, %21, %17
  ret void
}