; Function Attrs: mustprogress nounwind uwtable
define internal fastcc void @"_ZZNK4llvm15X86RegisterInfo21getRegAllocationHintsENS_8RegisterENS_8ArrayRefItEERNS_15SmallVectorImplItEERKNS_15MachineFunctionEPKNS_10VirtRegMapEPKNS_13LiveRegMatrixEENK3$_1clEt"(ptr noundef nonnull readonly align 8 captures(none) dereferenceable(40) %0, i16 noundef zeroext %1) unnamed_addr #2 align 2 {
  %3 = alloca %"class.llvm::ShapeT", align 8
  %4 = load ptr, ptr %0, align 8
  %5 = load ptr, ptr %4, align 8
  %6 = zext i16 %1 to i32
  %7 = tail call i32 @_ZNK4llvm13LiveRegMatrix10getOneVRegEj(ptr noundef nonnull align 8 dereferenceable(296) %5, i32 noundef %6) #22
  %8 = icmp eq i32 %7, 0
  br i1 %8, label %9, label %22

9:                                                ; preds = %2
  %10 = getelementptr inbounds nuw i8, ptr %0, i64 8
  %11 = load ptr, ptr %10, align 8
  %12 = tail call noundef i64 @_ZNK4llvm15SmallVectorBaseImE4sizeEv(ptr noundef nonnull align 8 dereferenceable(24) %11) #22
  %13 = add i64 %12, 1
  %14 = tail call noundef i64 @_ZNK4llvm15SmallVectorBaseImE8capacityEv(ptr noundef nonnull align 8 dereferenceable(24) %11) #22
  %.not.i.i.i = icmp ugt i64 %13, %14
  br i1 %.not.i.i.i, label %15, label %_ZN4llvm23SmallVectorTemplateBaseItLb1EE9push_backEt.exit

15:                                               ; preds = %9
  %16 = getelementptr inbounds nuw i8, ptr %11, i64 24
  tail call void @_ZN4llvm15SmallVectorBaseImE8grow_podEPvmm(ptr noundef nonnull align 8 dereferenceable(24) %11, ptr noundef nonnull %16, i64 noundef %13, i64 noundef 2) #22
  br label %_ZN4llvm23SmallVectorTemplateBaseItLb1EE9push_backEt.exit

_ZN4llvm23SmallVectorTemplateBaseItLb1EE9push_backEt.exit: ; preds = %9, %15
  %17 = load ptr, ptr %11, align 8
  %18 = tail call noundef i64 @_ZNK4llvm15SmallVectorBaseImE4sizeEv(ptr noundef nonnull align 8 dereferenceable(24) %11) #22
  %19 = getelementptr inbounds i16, ptr %17, i64 %18
  store i16 %1, ptr %19, align 1
  %20 = tail call noundef i64 @_ZNK4llvm15SmallVectorBaseImE4sizeEv(ptr noundef nonnull align 8 dereferenceable(24) %11) #22
  %21 = add i64 %20, 1
  tail call void @_ZN4llvm15SmallVectorBaseImE8set_sizeEm(ptr noundef nonnull align 8 dereferenceable(24) %11, i64 noundef %21) #22
  br label %_ZNK4llvm6ShapeTeqERKS0_.exit.thread

22:                                               ; preds = %2
  %23 = getelementptr inbounds nuw i8, ptr %0, i64 16
  %24 = load ptr, ptr %23, align 8
  %25 = load ptr, ptr %24, align 8
  %26 = getelementptr inbounds nuw i8, ptr %0, i64 24
  %27 = load ptr, ptr %26, align 8
  %28 = load ptr, ptr %27, align 8
  call fastcc void @_ZL12getTileShapeN4llvm8RegisterEPNS_10VirtRegMapEPKNS_19MachineRegisterInfoE(ptr dead_on_unwind noalias writable align 8 %3, i32 %7, ptr noundef %25, ptr noundef %28)
  %29 = getelementptr inbounds nuw i8, ptr %0, i64 32
  %30 = load ptr, ptr %29, align 8
  %31 = load ptr, ptr %30, align 8
  %32 = getelementptr inbounds nuw i8, ptr %30, i64 8
  %33 = load ptr, ptr %32, align 8
  %34 = icmp ne ptr %31, null
  %35 = icmp ne ptr %33, null
  %or.cond.i = select i1 %34, i1 %35, i1 false
  br i1 %or.cond.i, label %36, label %_ZNK4llvm6ShapeTeqERKS0_.exit.thread

36:                                               ; preds = %22
  %37 = load ptr, ptr %3, align 8
  %.not.i = icmp eq ptr %37, null
  br i1 %.not.i, label %_ZNK4llvm6ShapeTeqERKS0_.exit.thread, label %38

38:                                               ; preds = %36
  %39 = getelementptr inbounds nuw i8, ptr %3, i64 8
  %40 = load ptr, ptr %39, align 8
  %.not15.i = icmp eq ptr %40, null
  br i1 %.not15.i, label %_ZNK4llvm6ShapeTeqERKS0_.exit.thread, label %41

41:                                               ; preds = %38
  %42 = getelementptr inbounds nuw i8, ptr %37, i64 4
  %43 = load i32, ptr %42, align 4
  %44 = getelementptr inbounds nuw i8, ptr %31, i64 4
  %45 = load i32, ptr %44, align 4
  %46 = icmp eq i32 %43, %45
  br i1 %46, label %47, label %.critedge.i

47:                                               ; preds = %41
  %48 = getelementptr inbounds nuw i8, ptr %40, i64 4
  %49 = load i32, ptr %48, align 4
  %50 = getelementptr inbounds nuw i8, ptr %33, i64 4
  %51 = load i32, ptr %50, align 4
  %52 = icmp eq i32 %49, %51
  br i1 %52, label %_ZNK4llvm6ShapeTeqERKS0_.exit.thread7, label %.critedge.i

.critedge.i:                                      ; preds = %47, %41
  %53 = getelementptr inbounds nuw i8, ptr %3, i64 16
  %54 = load i64, ptr %53, align 8
  %.not16.i = icmp eq i64 %54, -1
  br i1 %.not16.i, label %_ZNK4llvm6ShapeTeqERKS0_.exit.thread, label %55

55:                                               ; preds = %.critedge.i
  %56 = getelementptr inbounds nuw i8, ptr %3, i64 24
  %57 = load i64, ptr %56, align 8
  %.not17.i = icmp ne i64 %57, -1
  %58 = getelementptr inbounds nuw i8, ptr %30, i64 16
  %59 = load i64, ptr %58, align 8
  %60 = icmp eq i64 %54, %59
  %or.cond23.i = select i1 %.not17.i, i1 %60, i1 false
  br i1 %or.cond23.i, label %_ZNK4llvm6ShapeTeqERKS0_.exit, label %_ZNK4llvm6ShapeTeqERKS0_.exit.thread

_ZNK4llvm6ShapeTeqERKS0_.exit:                    ; preds = %55
  %61 = getelementptr inbounds nuw i8, ptr %30, i64 24
  %62 = load i64, ptr %61, align 8
  %63 = icmp eq i64 %57, %62
  br i1 %63, label %_ZNK4llvm6ShapeTeqERKS0_.exit.thread7, label %_ZNK4llvm6ShapeTeqERKS0_.exit.thread

_ZNK4llvm6ShapeTeqERKS0_.exit.thread7:            ; preds = %47, %_ZNK4llvm6ShapeTeqERKS0_.exit
  %64 = getelementptr inbounds nuw i8, ptr %0, i64 8
  %65 = load ptr, ptr %64, align 8
  %66 = call noundef i64 @_ZNK4llvm15SmallVectorBaseImE4sizeEv(ptr noundef nonnull align 8 dereferenceable(24) %65) #22
  %67 = add i64 %66, 1
  %68 = call noundef i64 @_ZNK4llvm15SmallVectorBaseImE8capacityEv(ptr noundef nonnull align 8 dereferenceable(24) %65) #22
  %.not.i.i.i3 = icmp ugt i64 %67, %68
  br i1 %.not.i.i.i3, label %69, label %_ZN4llvm23SmallVectorTemplateBaseItLb1EE9push_backEt.exit4

69:                                               ; preds = %_ZNK4llvm6ShapeTeqERKS0_.exit.thread7
  %70 = getelementptr inbounds nuw i8, ptr %65, i64 24
  call void @_ZN4llvm15SmallVectorBaseImE8grow_podEPvmm(ptr noundef nonnull align 8 dereferenceable(24) %65, ptr noundef nonnull %70, i64 noundef %67, i64 noundef 2) #22
  br label %_ZN4llvm23SmallVectorTemplateBaseItLb1EE9push_backEt.exit4

_ZN4llvm23SmallVectorTemplateBaseItLb1EE9push_backEt.exit4: ; preds = %_ZNK4llvm6ShapeTeqERKS0_.exit.thread7, %69
  %71 = load ptr, ptr %65, align 8
  %72 = call noundef i64 @_ZNK4llvm15SmallVectorBaseImE4sizeEv(ptr noundef nonnull align 8 dereferenceable(24) %65) #22
  %73 = getelementptr inbounds i16, ptr %71, i64 %72
  store i16 %1, ptr %73, align 1
  %74 = call noundef i64 @_ZNK4llvm15SmallVectorBaseImE4sizeEv(ptr noundef nonnull align 8 dereferenceable(24) %65) #22
  %75 = add i64 %74, 1
  call void @_ZN4llvm15SmallVectorBaseImE8set_sizeEm(ptr noundef nonnull align 8 dereferenceable(24) %65, i64 noundef %75) #22
  br label %_ZNK4llvm6ShapeTeqERKS0_.exit.thread

_ZNK4llvm6ShapeTeqERKS0_.exit.thread:             ; preds = %.critedge.i, %55, %36, %38, %22, %_ZN4llvm23SmallVectorTemplateBaseItLb1EE9push_backEt.exit4, %_ZNK4llvm6ShapeTeqERKS0_.exit, %_ZN4llvm23SmallVectorTemplateBaseItLb1EE9push_backEt.exit
  ret void
}